; Function Attrs: mustprogress nofree norecurse nosync nounwind willreturn memory(none) uwtable
define internal i32 @get_lin_bin_abs(float noundef %0, i32 noundef %1) #5 {
  %3 = tail call nsz float @llvm.fabs.f32(float %0)
  %4 = fcmp nsz ogt float %3, 0.000000e+00
  %5 = select nsz i1 %4, float %3, float 0.000000e+00
  %6 = fcmp nsz ogt float %5, 1.000000e+00
  %..i = select nsz i1 %6, float 1.000000e+00, float %5
  %7 = add nsw i32 %1, -1
  %8 = sitofp i32 %7 to float
  %9 = fmul nsz float %..i, %8
  %10 = tail call i64 @llvm.lrint.i64.f32(float %9)
  %11 = trunc i64 %10 to i32
  ret i32 %11
}